Certificate:
    Data:
        Version: 3 (0x2)
        Serial Number: 2 (0x2)
    Signature Algorithm: sha512WithRSAEncryption
        Issuer: C=US, CN=ca.etcd.example.com, O=etcd-ca
        Validity
            Not Before: Mar 30 05:35:18 2020 GMT
            Not After : Mar 28 05:35:18 2030 GMT
        Subject: O=etcd-ca, CN=etcd-client
        Subject Public Key Info:
            Public Key Algorithm: rsaEncryption
                Public-Key: (4096 bit)
                Modulus:
                    00:dc:32:45:a7:a7:97:80:98:64:3d:f7:d6:8f:fa:
                    79:1b:d1:c0:97:96:dd:34:d5:02:5a:25:10:44:02:
                    60:0c:0c:e1:99:fc:1c:b0:38:8c:04:ee:00:29:10:
                    5a:52:32:d7:b8:42:a3:5d:ff:e0:a8:54:cb:05:d3:
                    f4:6f:fb:41:56:f9:b5:da:a2:69:31:84:b2:40:eb:
                    05:2d:78:f3:7d:a3:2d:93:78:60:0b:73:5a:06:35:
                    29:17:cb:db:01:b4:38:27:49:ad:74:d9:ca:09:c7:
                    22:5b:6d:3e:43:08:9e:e1:10:54:de:79:ea:82:93:
                    50:47:44:1d:7a:b2:7a:df:75:65:3e:fa:c7:28:b3:
                    c9:fd:58:19:31:46:04:dc:5b:4c:82:24:6b:db:cd:
                    57:53:b4:5c:71:24:e6:7e:37:e6:68:a8:9a:0f:cd:
                    fb:e9:5b:59:50:80:a2:85:d6:6b:ba:72:61:e4:80:
                    cd:63:27:8f:16:cd:95:d4:bf:ba:ab:11:73:e4:a0:
                    44:76:41:6f:d6:ec:63:be:e8:a3:2e:ad:d9:b7:7c:
                    5c:40:74:37:d3:56:b4:e2:69:63:63:74:01:e2:c0:
                    ee:61:7d:58:56:0b:75:9b:af:20:98:f0:2f:51:7c:
                    de:cf:5a:a8:ae:81:39:1d:39:d4:12:cc:f9:0f:8d:
                    6e:6b:c1:2b:02:3a:f1:54:b1:fc:e4:15:b5:9a:fe:
                    0e:48:87:77:77:13:73:64:92:fa:59:30:10:e3:53:
                    13:78:2e:02:80:95:93:bb:21:e1:99:5d:7f:7d:ec:
                    3d:9b:90:92:0e:17:e2:89:41:47:3d:80:16:d6:6f:
                    d8:2d:33:a9:36:04:70:b7:61:1d:e9:80:b1:a0:0a:
                    91:38:36:8e:b0:74:3a:d4:ef:b0:de:33:9f:b0:fc:
                    cd:ac:4d:bc:2d:08:67:6d:10:5c:cb:c1:41:87:7b:
                    dc:64:b5:0a:b7:1f:b1:df:0b:13:08:6f:5b:61:bd:
                    ae:18:3c:d1:18:aa:77:88:c1:a9:d5:f0:bb:50:d1:
                    de:87:b1:de:1c:21:47:3c:21:7a:a1:e7:23:d7:0e:
                    9e:51:e4:37:25:fc:d9:a3:ed:dc:41:93:01:fe:7b:
                    77:56:35:0c:65:57:49:d4:f7:ed:4d:91:87:30:43:
                    79:ac:ed:98:74:54:ff:c0:d3:3f:a2:36:88:bb:33:
                    fc:b5:fb:b0:63:22:d6:8e:d3:a5:e1:ef:b5:1d:96:
                    d5:92:34:fc:48:a9:f0:e8:89:c1:64:12:65:3d:26:
                    e0:24:7e:0e:93:e8:d1:70:fa:3c:03:6d:4d:e1:a7:
                    23:66:0c:9e:6a:5a:67:09:5f:c8:1f:88:11:56:d6:
                    db:a4:bb
                Exponent: 65537 (0x10001)
        X509v3 extensions:
            X509v3 Basic Constraints: 
                CA:FALSE
            X509v3 Extended Key Usage: 
                TLS Web Client Authentication
            X509v3 Key Usage: 
                Digital Signature, Key Encipherment
    Signature Algorithm: sha512WithRSAEncryption
         2d:51:c3:8b:c0:22:08:c0:3d:c6:44:06:e3:19:39:e4:93:a7:
         5c:94:8e:02:6f:11:b8:8c:ed:20:cc:4b:e3:7b:f1:3d:c7:dd:
         71:9b:26:77:70:d8:c0:b4:d3:bd:35:0a:19:ef:90:e4:a3:c7:
         89:1f:e0:c5:8a:43:86:2f:0f:a5:62:36:fd:71:8b:85:fe:77:
         c4:ab:18:e7:1c:62:81:3b:f9:7c:2e:39:b0:f3:39:9a:53:d1:
         5e:ef:09:7b:18:58:27:ae:13:b3:36:f3:65:79:c7:95:66:82:
         f7:7d:12:7d:7e:af:ba:7c:dc:50:a7:6d:18:9f:47:5f:77:1c:
         9f:ad:03:6a:0e:95:8e:8d:93:3b:f4:bd:e7:50:75:73:20:b7:
         55:53:6c:6e:b0:bb:1c:d1:19:88:84:eb:fb:03:6f:61:0a:af:
         f8:3e:01:45:2d:93:7d:52:5a:bc:4f:6e:69:b4:0d:91:6e:d0:
         dc:18:7c:17:e7:8f:ba:c7:83:72:f7:a3:d0:e3:f8:d6:96:73:
         27:e9:94:3d:86:f2:f2:9c:06:63:c1:8d:f3:7f:3d:97:f3:fe:
         d9:d7:1c:08:35:f1:79:b5:8e:1a:e4:28:f8:d4:af:f0:1a:a4:
         82:9f:ed:59:83:52:91:60:75:1e:6c:48:f6:ad:08:ec:81:bd:
         86:eb:29:c0:e5:67:53:b6:48:29:bc:ec:ee:88:f0:f3:d2:5c:
         35:7b:fd:12:19:15:8f:ed:b6:61:55:71:ec:81:2f:23:4b:0f:
         6e:92:4c:d4:d1:7d:03:e9:3d:a8:55:63:93:1e:e1:84:d0:34:
         a8:00:8a:b1:f0:65:dd:34:0c:db:48:db:3f:de:a8:4b:1c:65:
         84:fd:b8:aa:31:ae:f4:16:45:09:f9:11:07:17:28:3f:96:96:
         2e:ed:a4:34:0b:fa:0c:cb:ef:be:e1:56:54:3d:93:0b:61:25:
         91:a8:bd:a2:cc:64:3a:b8:bf:64:1b:d9:a4:00:63:7c:90:40:
         31:f5:09:66:ce:35:7d:79:d7:76:f3:3b:01:35:ea:36:43:33:
         3d:4b:53:6d:8a:e0:ca:75:a3:2a:11:02:7d:aa:82:02:fa:b7:
         52:2e:fc:c7:e5:69:72:5f:13:92:fc:eb:aa:42:1c:5f:9f:e5:
         65:fb:46:59:1c:f5:9b:0d:db:3b:08:f4:e0:92:05:09:64:c9:
         16:c0:77:c2:69:7f:59:19:2d:bc:1b:4f:47:55:76:2e:62:e8:
         37:cf:5b:25:d5:59:0c:39:f8:3b:13:08:f8:69:c2:b4:c3:5c:
         9a:b8:2a:40:dc:8b:c4:55:97:eb:0f:61:59:68:2a:de:45:48:
         b7:57:a9:01:c7:d5:1f:b1
-----BEGIN CERTIFICATE-----
MIIFDzCCAvegAwIBAgIBAjANBgkqhkiG9w0BAQ0FADA9MQswCQYDVQQGEwJVUzEc
MBoGA1UEAwwTY2EuZXRjZC5leGFtcGxlLmNvbTEQMA4GA1UECgwHZXRjZC1jYTAe
Fw0yMDAzMzAwNTM1MThaFw0zMDAzMjgwNTM1MThaMCgxEDAOBgNVBAoMB2V0Y2Qt
Y2ExFDASBgNVBAMMC2V0Y2QtY2xpZW50MIICIjANBgkqhkiG9w0BAQEFAAOCAg8A
MIICCgKCAgEA3DJFp6eXgJhkPffWj/p5G9HAl5bdNNUCWiUQRAJgDAzhmfwcsDiM
BO4AKRBaUjLXuEKjXf/gqFTLBdP0b/tBVvm12qJpMYSyQOsFLXjzfaMtk3hgC3Na
BjUpF8vbAbQ4J0mtdNnKCcciW20+Qwie4RBU3nnqgpNQR0QderJ633VlPvrHKLPJ
/VgZMUYE3FtMgiRr281XU7RccSTmfjfmaKiaD8376VtZUICihdZrunJh5IDNYyeP
Fs2V1L+6qxFz5KBEdkFv1uxjvuijLq3Zt3xcQHQ301a04mljY3QB4sDuYX1YVgt1
m68gmPAvUXzez1qoroE5HTnUEsz5D41ua8ErAjrxVLH85BW1mv4OSId3dxNzZJL6
WTAQ41MTeC4CgJWTuyHhmV1/few9m5CSDhfiiUFHPYAW1m/YLTOpNgRwt2Ed6YCx
oAqRODaOsHQ61O+w3jOfsPzNrE28LQhnbRBcy8FBh3vcZLUKtx+x3wsTCG9bYb2u
GDzRGKp3iMGp1fC7UNHeh7HeHCFHPCF6oecj1w6eUeQ3JfzZo+3cQZMB/nt3VjUM
ZVdJ1PftTZGHMEN5rO2YdFT/wNM/ojaIuzP8tfuwYyLWjtOl4e+1HZbVkjT8SKnw
6InBZBJlPSbgJH4Ok+jRcPo8A21N4acjZgyealpnCV/IH4gRVtbbpLsCAwEAAaMv
MC0wCQYDVR0TBAIwADATBgNVHSUEDDAKBggrBgEFBQcDAjALBgNVHQ8EBAMCBaAw
DQYJKoZIhvcNAQENBQADggIBAC1Rw4vAIgjAPcZEBuMZOeSTp1yUjgJvEbiM7SDM
S+N78T3H3XGbJndw2MC00701ChnvkOSjx4kf4MWKQ4YvD6ViNv1xi4X+d8SrGOcc
YoE7+XwuObDzOZpT0V7vCXsYWCeuE7M282V5x5Vmgvd9En1+r7p83FCnbRifR193
HJ+tA2oOlY6Nkzv0vedQdXMgt1VTbG6wuxzRGYiE6/sDb2EKr/g+AUUtk31SWrxP
bmm0DZFu0NwYfBfnj7rHg3L3o9Dj+NaWcyfplD2G8vKcBmPBjfN/PZfz/tnXHAg1
8Xm1jhrkKPjUr/AapIKf7VmDUpFgdR5sSPatCOyBvYbrKcDlZ1O2SCm87O6I8PPS
XDV7/RIZFY/ttmFVceyBLyNLD26STNTRfQPpPahVY5Me4YTQNKgAirHwZd00DNtI
2z/eqEscZYT9uKoxrvQWRQn5EQcXKD+Wli7tpDQL+gzL777hVlQ9kwthJZGovaLM
ZDq4v2Qb2aQAY3yQQDH1CWbONX1513bzOwE16jZDMz1LU22K4Mp1oyoRAn2qggL6
t1Iu/MflaXJfE5L866pCHF+f5WX7Rlkc9ZsN2zsI9OCSBQlkyRbAd8Jpf1kZLbwb
T0dVdi5i6DfPWyXVWQw5+DsTCPhpwrTDXJq4KkDci8RVl+sPYVloKt5FSLdXqQHH
1R+x
-----END CERTIFICATE-----
